target datalayout = "e-m:e-p270:32:32-p271:32:32-p272:64:64-i64:64-i128:128-f80:128-n8:16:32:64-S128"
target triple = "x86_64-pc-linux-gnu"

%struct._value_string_ext = type { ptr, i32, i32, ptr, ptr }
%struct.expert_field = type { i32, i32 }

@hf_hdr_name_value = internal global i32 0, align 4
@ei_wsp_oversized_uintvar = internal global %struct.expert_field zeroinitializer, align 4
@ei_wsp_header_invalid_value = internal global %struct.expert_field zeroinitializer, align 4
@hf_hdr_te = internal global i32 0, align 4
@hf_hdr_encoding_version = internal global i32 0, align 4
@ett_te_value = internal global i32 0, align 4
@.str.1164 = private unnamed_addr constant [9 x i8] c"TE-value\00", align 1
@.str.1165 = private unnamed_addr constant [9 x i8] c"trailers\00", align 1
@vals_well_known_te_ext = internal global %struct._value_string_ext { ptr @_try_val_to_str_ext_init, i32 0, i32 5, ptr @vals_well_known_te, ptr @.str.1166 }, align 8

; Function Attrs: null_pointer_is_valid sspstrong uwtable
define internal i32 @wkh_te(ptr noundef %0, ptr noundef %1, i32 noundef %2, ptr noundef %3) #1 {
  %5 = alloca ptr, align 8
  %6 = alloca ptr, align 8
  %7 = alloca i32, align 4
  %8 = alloca ptr, align 8
  %9 = alloca i8, align 1
  %10 = alloca ptr, align 8
  %11 = alloca ptr, align 8
  %12 = alloca i32, align 4
  %13 = alloca i8, align 1
  %14 = alloca i32, align 4
  %15 = alloca i32, align 4
  %16 = alloca i32, align 4
  %17 = alloca ptr, align 8
  %18 = alloca i32, align 4
  %19 = alloca i32, align 4
  %20 = alloca i32, align 4
  store ptr %0, ptr %5, align 8
  store ptr %1, ptr %6, align 8
  store i32 %2, ptr %7, align 4
  store ptr %3, ptr %8, align 8
  call void @llvm.lifetime.start.p0(i64 1, ptr %9) #8
  store i8 0, ptr %9, align 1
  call void @llvm.lifetime.start.p0(i64 8, ptr %10) #8
  call void @llvm.lifetime.start.p0(i64 8, ptr %11) #8
  call void @llvm.lifetime.start.p0(i64 4, ptr %12) #8
  %21 = load i32, ptr %7, align 4
  %22 = add i32 %21, 1
  store i32 %22, ptr %12, align 4
  call void @llvm.lifetime.start.p0(i64 1, ptr %13) #8
  %23 = load ptr, ptr %6, align 8
  %24 = load i32, ptr %12, align 4
  %25 = call zeroext i8 @tvb_get_uint8(ptr noundef %23, i32 noundef %24)
  store i8 %25, ptr %13, align 1
  call void @llvm.lifetime.start.p0(i64 4, ptr %14) #8
  %26 = load i32, ptr %12, align 4
  store i32 %26, ptr %14, align 4
  call void @llvm.lifetime.start.p0(i64 4, ptr %15) #8
  call void @llvm.lifetime.start.p0(i64 4, ptr %16) #8
  call void @llvm.lifetime.start.p0(i64 8, ptr %17) #8
  store ptr null, ptr %17, align 8
  call void @llvm.lifetime.start.p0(i64 4, ptr %18) #8
  call void @llvm.lifetime.start.p0(i64 4, ptr %19) #8
  call void @llvm.lifetime.start.p0(i64 4, ptr %20) #8
  %27 = load ptr, ptr %5, align 8
  %28 = load ptr, ptr %6, align 8
  %29 = load i32, ptr %7, align 4
  %30 = load i32, ptr %14, align 4
  %31 = load i32, ptr %7, align 4
  %32 = sub i32 %30, %31
  %33 = load i32, ptr @ett_te_value, align 4
  %34 = call ptr @proto_tree_add_subtree(ptr noundef %27, ptr noundef %28, i32 noundef %29, i32 noundef %32, i32 noundef %33, ptr noundef %11, ptr noundef @.str.1164)
  store ptr %34, ptr %10, align 8
  %35 = load ptr, ptr %10, align 8
  %36 = load i32, ptr @hf_hdr_name_value, align 4
  %37 = load ptr, ptr %6, align 8
  %38 = load i32, ptr %7, align 4
  %39 = call ptr @proto_tree_add_item(ptr noundef %35, i32 noundef %36, ptr noundef %37, i32 noundef %38, i32 noundef 1, i32 noundef 0)
  %40 = load i8, ptr %13, align 1
  %41 = zext i8 %40 to i32
  %42 = and i32 %41, 128
  %43 = icmp ne i32 %42, 0
  br i1 %43, label %44, label %60

44:                                               ; preds = %4
  %45 = load i32, ptr %14, align 4
  %46 = add i32 %45, 1
  store i32 %46, ptr %14, align 4
  %47 = load i8, ptr %13, align 1
  %48 = zext i8 %47 to i32
  %49 = icmp eq i32 %48, 129
  br i1 %49, label %50, label %59

50:                                               ; preds = %44
  %51 = load ptr, ptr %5, align 8
  %52 = load i32, ptr @hf_hdr_encoding_version, align 4
  %53 = load ptr, ptr %6, align 8
  %54 = load i32, ptr %7, align 4
  %55 = load i32, ptr %14, align 4
  %56 = load i32, ptr %7, align 4
  %57 = sub i32 %55, %56
  %58 = call ptr @proto_tree_add_string(ptr noundef %51, i32 noundef %52, ptr noundef %53, i32 noundef %54, i32 noundef %57, ptr noundef @.str.1165)
  store i8 1, ptr %9, align 1
  br label %59

59:                                               ; preds = %50, %44
  br label %179

60:                                               ; preds = %4
  %61 = load i8, ptr %13, align 1
  %62 = zext i8 %61 to i32
  %63 = icmp eq i32 %62, 0
  br i1 %63, label %68, label %64

64:                                               ; preds = %60
  %65 = load i8, ptr %13, align 1
  %66 = zext i8 %65 to i32
  %67 = icmp sge i32 %66, 32
  br i1 %67, label %68, label %76

68:                                               ; preds = %64, %60
  %69 = call ptr @wmem_packet_scope()
  %70 = load ptr, ptr %6, align 8
  %71 = load i32, ptr %12, align 4
  %72 = call ptr @tvb_get_stringz_enc(ptr noundef %69, ptr noundef %70, i32 noundef %71, ptr noundef %15, i32 noundef 0)
  %73 = load i32, ptr %12, align 4
  %74 = load i32, ptr %15, align 4
  %75 = add i32 %73, %74
  store i32 %75, ptr %14, align 4
  br label %178

76:                                               ; preds = %64
  %77 = load i8, ptr %13, align 1
  %78 = zext i8 %77 to i32
  %79 = icmp eq i32 %78, 31
  br i1 %79, label %80, label %88

80:                                               ; preds = %76
  %81 = load ptr, ptr %6, align 8
  %82 = load i32, ptr %12, align 4
  %83 = add i32 %82, 1
  %84 = load ptr, ptr %8, align 8
  %85 = call i32 @tvb_get_uintvar(ptr noundef %81, i32 noundef %83, ptr noundef %16, ptr noundef %84, ptr noundef @ei_wsp_oversized_uintvar)
  store i32 %85, ptr %15, align 4
  %86 = load i32, ptr %16, align 4
  %87 = add i32 %86, 1
  store i32 %87, ptr %16, align 4
  br label %93

88:                                               ; preds = %76
  %89 = load ptr, ptr %6, align 8
  %90 = load i32, ptr %14, align 4
  %91 = call zeroext i8 @tvb_get_uint8(ptr noundef %89, i32 noundef %90)
  %92 = zext i8 %91 to i32
  store i32 %92, ptr %15, align 4
  store i32 1, ptr %16, align 4
  br label %93

93:                                               ; preds = %88, %80
  %94 = load i32, ptr %16, align 4
  %95 = load i32, ptr %15, align 4
  %96 = add i32 %94, %95
  %97 = load i32, ptr %14, align 4
  %98 = add i32 %97, %96
  store i32 %98, ptr %14, align 4
  %99 = load i32, ptr %12, align 4
  %100 = load i32, ptr %16, align 4
  %101 = add i32 %99, %100
  store i32 %101, ptr %18, align 4
  %102 = load ptr, ptr %6, align 8
  %103 = load i32, ptr %18, align 4
  %104 = call zeroext i8 @tvb_get_uint8(ptr noundef %102, i32 noundef %103)
  %105 = zext i8 %104 to i32
  store i32 %105, ptr %19, align 4
  %106 = load i32, ptr %19, align 4
  %107 = and i32 %106, 128
  %108 = icmp ne i32 %107, 0
  br i1 %108, label %109, label %128

109:                                              ; preds = %93
  %110 = load i32, ptr %19, align 4
  %111 = and i32 %110, 127
  %112 = call ptr @try_val_to_str_ext(i32 noundef %111, ptr noundef @vals_well_known_te_ext)
  store ptr %112, ptr %17, align 8
  %113 = load ptr, ptr %17, align 8
  %114 = icmp ne ptr %113, null
  br i1 %114, label %115, label %127

115:                                              ; preds = %109
  %116 = load ptr, ptr %5, align 8
  %117 = load i32, ptr @hf_hdr_te, align 4
  %118 = load ptr, ptr %6, align 8
  %119 = load i32, ptr %7, align 4
  %120 = load i32, ptr %18, align 4
  %121 = load i32, ptr %7, align 4
  %122 = sub i32 %120, %121
  %123 = load ptr, ptr %17, align 8
  %124 = call ptr @proto_tree_add_string(ptr noundef %116, i32 noundef %117, ptr noundef %118, i32 noundef %119, i32 noundef %122, ptr noundef %123)
  %125 = load i32, ptr %18, align 4
  %126 = add i32 %125, 1
  store i32 %126, ptr %18, align 4
  store i8 1, ptr %9, align 1
  br label %127

127:                                              ; preds = %115, %109
  br label %169

128:                                              ; preds = %93
  %129 = load ptr, ptr %6, align 8
  %130 = load i32, ptr %18, align 4
  %131 = call zeroext i8 @tvb_get_uint8(ptr noundef %129, i32 noundef %130)
  %132 = zext i8 %131 to i32
  %133 = icmp eq i32 %132, 0
  br i1 %133, label %146, label %134

134:                                              ; preds = %128
  %135 = load ptr, ptr %6, align 8
  %136 = load i32, ptr %18, align 4
  %137 = call zeroext i8 @tvb_get_uint8(ptr noundef %135, i32 noundef %136)
  %138 = zext i8 %137 to i32
  %139 = icmp sge i32 %138, 32
  br i1 %139, label %140, label %151

140:                                              ; preds = %134
  %141 = load ptr, ptr %6, align 8
  %142 = load i32, ptr %18, align 4
  %143 = call zeroext i8 @tvb_get_uint8(ptr noundef %141, i32 noundef %142)
  %144 = zext i8 %143 to i32
  %145 = icmp sle i32 %144, 127
  br i1 %145, label %146, label %151

146:                                              ; preds = %140, %128
  %147 = call ptr @wmem_packet_scope()
  %148 = load ptr, ptr %6, align 8
  %149 = load i32, ptr %18, align 4
  %150 = call ptr @tvb_get_stringz_enc(ptr noundef %147, ptr noundef %148, i32 noundef %149, ptr noundef %20, i32 noundef 0)
  store ptr %150, ptr %17, align 8
  store i8 1, ptr %9, align 1
  br label %152

151:                                              ; preds = %140, %134
  store i32 0, ptr %20, align 4
  store ptr null, ptr %17, align 8
  store i8 0, ptr %9, align 1
  br label %152

152:                                              ; preds = %151, %146
  %153 = load i8, ptr %9, align 1, !range !6, !noundef !7
  %154 = trunc i8 %153 to i1
  br i1 %154, label %155, label %168

155:                                              ; preds = %152
  %156 = load ptr, ptr %5, align 8
  %157 = load i32, ptr @hf_hdr_te, align 4
  %158 = load ptr, ptr %6, align 8
  %159 = load i32, ptr %7, align 4
  %160 = load i32, ptr %18, align 4
  %161 = load i32, ptr %7, align 4
  %162 = sub i32 %160, %161
  %163 = load ptr, ptr %17, align 8
  %164 = call ptr @proto_tree_add_string(ptr noundef %156, i32 noundef %157, ptr noundef %158, i32 noundef %159, i32 noundef %162, ptr noundef %163)
  %165 = load i32, ptr %20, align 4
  %166 = load i32, ptr %18, align 4
  %167 = add i32 %166, %165
  store i32 %167, ptr %18, align 4
  br label %168

168:                                              ; preds = %155, %152
  br label %169

169:                                              ; preds = %168, %127
  %170 = load i8, ptr %9, align 1, !range !6, !noundef !7
  %171 = trunc i8 %170 to i1
  br i1 %171, label %172, label %177

172:                                              ; preds = %169
  %173 = load i32, ptr %18, align 4
  %174 = load i32, ptr %14, align 4
  %175 = icmp ult i32 %173, %174
  br i1 %175, label %176, label %177

176:                                              ; preds = %172
  br label %177

177:                                              ; preds = %176, %172, %169
  br label %178

178:                                              ; preds = %177, %68
  br label %179

179:                                              ; preds = %178, %59
  %180 = load i8, ptr %9, align 1, !range !6, !noundef !7
  %181 = trunc i8 %180 to i1
  br i1 %181, label %186, label %182

182:                                              ; preds = %179
  %183 = load ptr, ptr %8, align 8
  %184 = load ptr, ptr %11, align 8
  %185 = call ptr @expert_add_info(ptr noundef %183, ptr noundef %184, ptr noundef @ei_wsp_header_invalid_value)
  br label %186

186:                                              ; preds = %182, %179
  %187 = load i32, ptr %14, align 4
  call void @llvm.lifetime.end.p0(i64 4, ptr %20) #8
  call void @llvm.lifetime.end.p0(i64 4, ptr %19) #8
  call void @llvm.lifetime.end.p0(i64 4, ptr %18) #8
  call void @llvm.lifetime.end.p0(i64 8, ptr %17) #8
  call void @llvm.lifetime.end.p0(i64 4, ptr %16) #8
  call void @llvm.lifetime.end.p0(i64 4, ptr %15) #8
  call void @llvm.lifetime.end.p0(i64 4, ptr %14) #8
  call void @llvm.lifetime.end.p0(i64 1, ptr %13) #8
  call void @llvm.lifetime.end.p0(i64 4, ptr %12) #8
  call void @llvm.lifetime.end.p0(i64 8, ptr %11) #8
  call void @llvm.lifetime.end.p0(i64 8, ptr %10) #8
  call void @llvm.lifetime.end.p0(i64 1, ptr %9) #8
  ret i32 %187
}