; Function Attrs: null_pointer_is_valid sspstrong uwtable
define internal i32 @wkh_te(ptr noundef %0, ptr noundef %1, i32 noundef %2, ptr noundef %3) #1 {
  %5 = alloca ptr, align 8
  %6 = alloca i32, align 4
  %7 = alloca i32, align 4
  %8 = alloca i32, align 4
  call void @llvm.lifetime.start.p0(i64 8, ptr nonnull %5) #5
  %9 = add i32 %2, 1
  %10 = tail call zeroext i8 @tvb_get_uint8(ptr noundef %1, i32 noundef %9)
  call void @llvm.lifetime.start.p0(i64 4, ptr nonnull %6) #5
  call void @llvm.lifetime.start.p0(i64 4, ptr nonnull %7) #5
  call void @llvm.lifetime.start.p0(i64 4, ptr nonnull %8) #5
  %11 = load i32, ptr @ett_te_value, align 4
  %12 = call ptr @proto_tree_add_subtree(ptr noundef %0, ptr noundef %1, i32 noundef %2, i32 noundef 1, i32 noundef %11, ptr noundef nonnull %5, ptr noundef nonnull @.str.1164)
  %13 = load i32, ptr @hf_hdr_name_value, align 4
  %14 = call ptr @proto_tree_add_item(ptr noundef %12, i32 noundef %13, ptr noundef %1, i32 noundef %2, i32 noundef 1, i32 noundef 0)
  %.not = icmp sgt i8 %10, -1
  br i1 %.not, label %21, label %15

15:                                               ; preds = %4
  %16 = add i32 %2, 2
  %17 = icmp eq i8 %10, -127
  br i1 %17, label %18, label %65

18:                                               ; preds = %15
  %19 = load i32, ptr @hf_hdr_encoding_version, align 4
  %20 = call ptr @proto_tree_add_string(ptr noundef %0, i32 noundef %19, ptr noundef %1, i32 noundef %2, i32 noundef 2, ptr noundef nonnull @.str.1165)
  br label %68

21:                                               ; preds = %4
  %22 = add nsw i8 %10, -32
  %or.cond = icmp ult i8 %22, -31
  br i1 %or.cond, label %23, label %28

23:                                               ; preds = %21
  %24 = call ptr @wmem_packet_scope()
  %25 = call ptr @tvb_get_stringz_enc(ptr noundef %24, ptr noundef %1, i32 noundef %9, ptr noundef nonnull %6, i32 noundef 0)
  %26 = load i32, ptr %6, align 4
  %27 = add i32 %26, %9
  br label %65

28:                                               ; preds = %21
  %29 = icmp eq i8 %10, 31
  br i1 %29, label %30, label %35

30:                                               ; preds = %28
  %31 = add i32 %2, 2
  %32 = call i32 @tvb_get_uintvar(ptr noundef %1, i32 noundef %31, ptr noundef nonnull %7, ptr noundef %3, ptr noundef nonnull @ei_wsp_oversized_uintvar)
  %33 = load i32, ptr %7, align 4
  %34 = add i32 %33, 1
  br label %38

35:                                               ; preds = %28
  %36 = call zeroext i8 @tvb_get_uint8(ptr noundef %1, i32 noundef %9)
  %37 = zext i8 %36 to i32
  br label %38

38:                                               ; preds = %35, %30
  %.sink = phi i32 [ %32, %30 ], [ %37, %35 ]
  %storemerge = phi i32 [ %34, %30 ], [ 1, %35 ]
  store i32 %.sink, ptr %6, align 4
  store i32 %storemerge, ptr %7, align 4
  %39 = add i32 %storemerge, %9
  %40 = add i32 %39, %.sink
  %41 = call zeroext i8 @tvb_get_uint8(ptr noundef %1, i32 noundef %39)
  %.not69 = icmp sgt i8 %41, -1
  br i1 %.not69, label %50, label %42

42:                                               ; preds = %38
  %43 = and i8 %41, 127
  %44 = zext nneg i8 %43 to i32
  %45 = call ptr @try_val_to_str_ext(i32 noundef %44, ptr noundef nonnull @vals_well_known_te_ext)
  %.not70 = icmp eq ptr %45, null
  br i1 %.not70, label %65, label %46

46:                                               ; preds = %42
  %47 = load i32, ptr @hf_hdr_te, align 4
  %48 = sub i32 %39, %2
  %49 = call ptr @proto_tree_add_string(ptr noundef %0, i32 noundef %47, ptr noundef %1, i32 noundef %2, i32 noundef %48, ptr noundef nonnull %45)
  br label %68

50:                                               ; preds = %38
  %51 = call zeroext i8 @tvb_get_uint8(ptr noundef %1, i32 noundef %39)
  %52 = icmp eq i8 %51, 0
  br i1 %52, label %59, label %53

53:                                               ; preds = %50
  %54 = call zeroext i8 @tvb_get_uint8(ptr noundef %1, i32 noundef %39)
  %55 = icmp ugt i8 %54, 31
  br i1 %55, label %56, label %65

56:                                               ; preds = %53
  %57 = call zeroext i8 @tvb_get_uint8(ptr noundef %1, i32 noundef %39)
  %58 = icmp sgt i8 %57, -1
  br i1 %58, label %59, label %65

59:                                               ; preds = %50, %56
  %60 = call ptr @wmem_packet_scope()
  %61 = call ptr @tvb_get_stringz_enc(ptr noundef %60, ptr noundef %1, i32 noundef %39, ptr noundef nonnull %8, i32 noundef 0)
  %62 = load i32, ptr @hf_hdr_te, align 4
  %63 = sub i32 %39, %2
  %64 = call ptr @proto_tree_add_string(ptr noundef %0, i32 noundef %62, ptr noundef %1, i32 noundef %2, i32 noundef %63, ptr noundef %61)
  br label %68

65:                                               ; preds = %56, %53, %15, %23, %42
  %.066.ph = phi i32 [ %40, %42 ], [ %27, %23 ], [ %16, %15 ], [ %40, %53 ], [ %40, %56 ]
  %66 = load ptr, ptr %5, align 8
  %67 = call ptr @expert_add_info(ptr noundef %3, ptr noundef %66, ptr noundef nonnull @ei_wsp_header_invalid_value)
  br label %68

68:                                               ; preds = %18, %59, %46, %65
  %.06679 = phi i32 [ %.066.ph, %65 ], [ %16, %18 ], [ %40, %46 ], [ %40, %59 ]
  call void @llvm.lifetime.end.p0(i64 4, ptr nonnull %8) #5
  call void @llvm.lifetime.end.p0(i64 4, ptr nonnull %7) #5
  call void @llvm.lifetime.end.p0(i64 4, ptr nonnull %6) #5
  call void @llvm.lifetime.end.p0(i64 8, ptr nonnull %5) #5
  ret i32 %.06679
}